target datalayout = "e-m:e-p270:32:32-p271:32:32-p272:64:64-i64:64-i128:128-f80:128-n8:16:32:64-S128"
target triple = "x86_64-pc-linux-gnu"

%struct._zend_array = type { %struct._zend_refcounted_h, %union.anon.0, i32, %union.anon.1, i32, i32, i32, i32, i64, ptr }
%struct._zend_refcounted_h = type { i32, %union.anon }
%union.anon = type { i32 }
%union.anon.0 = type { i32 }
%union.anon.1 = type { ptr }
%struct._zval_struct = type { %union._zend_value, %union.anon.3, %union.anon.6 }
%union._zend_value = type { i64 }
%union.anon.3 = type { i32 }
%union.anon.6 = type { i32 }
%struct._Bucket = type { %struct._zval_struct, i64, ptr }
%struct._zend_string = type { %struct._zend_refcounted_h, i64, i64, [1 x i8] }

@stderr = external global ptr, align 8
@.str = private unnamed_addr constant [3 x i8] c", \00", align 1
@.str.1 = private unnamed_addr constant [5 x i8] c"\22%s\22\00", align 1
@.str.2 = private unnamed_addr constant [4 x i8] c"%ld\00", align 1
@.str.3 = private unnamed_addr constant [4 x i8] c" =>\00", align 1

; Function Attrs: nounwind uwtable
define hidden void @zend_dump_ht(ptr noundef %0) #0 {
  %2 = alloca ptr, align 8
  %3 = alloca ptr, align 8
  %4 = alloca i64, align 8
  %5 = alloca ptr, align 8
  %6 = alloca ptr, align 8
  %7 = alloca i8, align 1
  %8 = alloca ptr, align 8
  %9 = alloca i64, align 8
  %10 = alloca ptr, align 8
  %11 = alloca i32, align 4
  %12 = alloca i64, align 8
  %13 = alloca ptr, align 8
  %14 = alloca i32, align 4
  %15 = alloca ptr, align 8
  %16 = alloca ptr, align 8
  store ptr %0, ptr %3, align 8
  store i8 1, ptr %7, align 1
  br label %17

17:                                               ; preds = %1
  %18 = load ptr, ptr %3, align 8
  store ptr %18, ptr %8, align 8
  store ptr null, ptr %10, align 8
  store i32 0, ptr %11, align 4
  %19 = load ptr, ptr %8, align 8
  %20 = getelementptr inbounds %struct._zend_array, ptr %19, i32 0, i32 1
  %21 = load i32, ptr %20, align 8
  %22 = xor i32 %21, -1
  %23 = and i32 %22, 4
  %24 = zext i32 %23 to i64
  %25 = mul i64 %24, 4
  %26 = add i64 16, %25
  store i64 %26, ptr %12, align 8
  %27 = load ptr, ptr %8, align 8
  %28 = getelementptr inbounds %struct._zend_array, ptr %27, i32 0, i32 3
  %29 = load ptr, ptr %28, align 8
  %30 = load i32, ptr %11, align 4
  %31 = zext i32 %30 to i64
  %32 = load i64, ptr %12, align 8
  %33 = mul i64 %31, %32
  %34 = getelementptr inbounds i8, ptr %29, i64 %33
  store ptr %34, ptr %13, align 8
  %35 = load ptr, ptr %8, align 8
  %36 = getelementptr inbounds %struct._zend_array, ptr %35, i32 0, i32 4
  %37 = load i32, ptr %36, align 8
  %38 = load i32, ptr %11, align 4
  %39 = sub i32 %37, %38
  store i32 %39, ptr %14, align 4
  br label %40

40:                                               ; preds = %108, %17
  %41 = load i32, ptr %14, align 4
  %42 = icmp ugt i32 %41, 0
  br i1 %42, label %43, label %111

43:                                               ; preds = %40
  %44 = load ptr, ptr %13, align 8
  store ptr %44, ptr %15, align 8
  %45 = load ptr, ptr %8, align 8
  %46 = getelementptr inbounds %struct._zend_array, ptr %45, i32 0, i32 1
  %47 = load i32, ptr %46, align 8
  %48 = and i32 %47, 4
  %49 = icmp ne i32 %48, 0
  br i1 %49, label %50, label %57

50:                                               ; preds = %43
  %51 = load ptr, ptr %13, align 8
  %52 = getelementptr inbounds %struct._zval_struct, ptr %51, i32 1
  store ptr %52, ptr %13, align 8
  %53 = load i32, ptr %11, align 4
  %54 = zext i32 %53 to i64
  store i64 %54, ptr %9, align 8
  %55 = load i32, ptr %11, align 4
  %56 = add i32 %55, 1
  store i32 %56, ptr %11, align 4
  br label %68

57:                                               ; preds = %43
  %58 = load ptr, ptr %13, align 8
  store ptr %58, ptr %16, align 8
  %59 = load ptr, ptr %16, align 8
  %60 = getelementptr inbounds %struct._Bucket, ptr %59, i64 1
  %61 = getelementptr inbounds %struct._Bucket, ptr %60, i32 0, i32 0
  store ptr %61, ptr %13, align 8
  %62 = load ptr, ptr %16, align 8
  %63 = getelementptr inbounds %struct._Bucket, ptr %62, i32 0, i32 1
  %64 = load i64, ptr %63, align 8
  store i64 %64, ptr %9, align 8
  %65 = load ptr, ptr %16, align 8
  %66 = getelementptr inbounds %struct._Bucket, ptr %65, i32 0, i32 2
  %67 = load ptr, ptr %66, align 8
  store ptr %67, ptr %10, align 8
  br label %68

68:                                               ; preds = %57, %50
  %69 = load ptr, ptr %15, align 8
  store ptr %69, ptr %2, align 8
  %70 = load ptr, ptr %2, align 8
  %71 = getelementptr inbounds %struct._zval_struct, ptr %70, i32 0, i32 1
  %72 = load i8, ptr %71, align 8
  %73 = zext i8 %72 to i32
  %74 = icmp eq i32 %73, 0
  %75 = xor i1 %74, true
  %76 = xor i1 %75, true
  %77 = zext i1 %76 to i32
  %78 = sext i32 %77 to i64
  %79 = icmp ne i64 %78, 0
  br i1 %79, label %80, label %81

80:                                               ; preds = %68
  br label %108

81:                                               ; preds = %68
  %82 = load i64, ptr %9, align 8
  store i64 %82, ptr %4, align 8
  %83 = load ptr, ptr %10, align 8
  store ptr %83, ptr %5, align 8
  %84 = load ptr, ptr %15, align 8
  store ptr %84, ptr %6, align 8
  %85 = load i8, ptr %7, align 1
  %86 = trunc i8 %85 to i1
  br i1 %86, label %87, label %88

87:                                               ; preds = %81
  store i8 0, ptr %7, align 1
  br label %91

88:                                               ; preds = %81
  %89 = load ptr, ptr @stderr, align 8
  %90 = call i32 (ptr, ptr, ...) @fprintf(ptr noundef %89, ptr noundef @.str) #4
  br label %91

91:                                               ; preds = %88, %87
  %92 = load ptr, ptr %5, align 8
  %93 = icmp ne ptr %92, null
  br i1 %93, label %94, label %100

94:                                               ; preds = %91
  %95 = load ptr, ptr @stderr, align 8
  %96 = load ptr, ptr %5, align 8
  %97 = getelementptr inbounds %struct._zend_string, ptr %96, i32 0, i32 3
  %98 = getelementptr inbounds [1 x i8], ptr %97, i64 0, i64 0
  %99 = call i32 (ptr, ptr, ...) @fprintf(ptr noundef %95, ptr noundef @.str.1, ptr noundef %98) #4
  br label %104

100:                                              ; preds = %91
  %101 = load ptr, ptr @stderr, align 8
  %102 = load i64, ptr %4, align 8
  %103 = call i32 (ptr, ptr, ...) @fprintf(ptr noundef %101, ptr noundef @.str.2, i64 noundef %102) #4
  br label %104

104:                                              ; preds = %100, %94
  %105 = load ptr, ptr @stderr, align 8
  %106 = call i32 (ptr, ptr, ...) @fprintf(ptr noundef %105, ptr noundef @.str.3) #4
  %107 = load ptr, ptr %6, align 8
  call void @zend_dump_const(ptr noundef %107)
  br label %108

108:                                              ; preds = %104, %80
  %109 = load i32, ptr %14, align 4
  %110 = add i32 %109, -1
  store i32 %110, ptr %14, align 4
  br label %40

111:                                              ; preds = %40
  br label %112

112:                                              ; preds = %111
  ret void
}