; Function Attrs: nounwind uwtable
define hidden void @zend_dump_ht(ptr nocapture noundef readonly %0) local_unnamed_addr #0 {
  %2 = getelementptr inbounds i8, ptr %0, i64 8
  %3 = getelementptr inbounds i8, ptr %0, i64 24
  %4 = load i32, ptr %3, align 8
  %.not38 = icmp eq i32 %4, 0
  br i1 %.not38, label %._crit_edge, label %.lr.ph.preheader

.lr.ph.preheader:                                 ; preds = %1
  %5 = getelementptr inbounds i8, ptr %0, i64 16
  %6 = load ptr, ptr %5, align 8
  br label %.lr.ph

.lr.ph:                                           ; preds = %.lr.ph.preheader, %38
  %.043 = phi i8 [ %.2, %38 ], [ 1, %.lr.ph.preheader ]
  %.02842 = phi i32 [ %39, %38 ], [ %4, %.lr.ph.preheader ]
  %.02941 = phi ptr [ %.130, %38 ], [ %6, %.lr.ph.preheader ]
  %.03140 = phi ptr [ %.132, %38 ], [ null, %.lr.ph.preheader ]
  %.03339 = phi i32 [ %.134, %38 ], [ 0, %.lr.ph.preheader ]
  %7 = load i32, ptr %2, align 8
  %8 = and i32 %7, 4
  %.not35 = icmp eq i32 %8, 0
  br i1 %.not35, label %13, label %9

9:                                                ; preds = %.lr.ph
  %10 = getelementptr inbounds i8, ptr %.02941, i64 16
  %11 = zext i32 %.03339 to i64
  %12 = add i32 %.03339, 1
  br label %19

13:                                               ; preds = %.lr.ph
  %14 = getelementptr inbounds i8, ptr %.02941, i64 32
  %15 = getelementptr inbounds i8, ptr %.02941, i64 16
  %16 = load i64, ptr %15, align 8
  %17 = getelementptr inbounds i8, ptr %.02941, i64 24
  %18 = load ptr, ptr %17, align 8
  br label %19

19:                                               ; preds = %13, %9
  %.134 = phi i32 [ %12, %9 ], [ %.03339, %13 ]
  %.132 = phi ptr [ %.03140, %9 ], [ %18, %13 ]
  %.130 = phi ptr [ %10, %9 ], [ %14, %13 ]
  %.027 = phi i64 [ %11, %9 ], [ %16, %13 ]
  %20 = getelementptr inbounds i8, ptr %.02941, i64 8
  %21 = load i8, ptr %20, align 8
  %22 = icmp eq i8 %21, 0
  br i1 %22, label %38, label %23

23:                                               ; preds = %19
  %24 = and i8 %.043, 1
  %.not36 = icmp eq i8 %24, 0
  br i1 %.not36, label %25, label %28

25:                                               ; preds = %23
  %26 = load ptr, ptr @stderr, align 8
  %27 = tail call i64 @fwrite(ptr nonnull @.str, i64 2, i64 1, ptr %26) #7
  br label %28

28:                                               ; preds = %23, %25
  %.1 = phi i8 [ %.043, %25 ], [ 0, %23 ]
  %.not37 = icmp eq ptr %.132, null
  %29 = load ptr, ptr @stderr, align 8
  br i1 %.not37, label %33, label %30

30:                                               ; preds = %28
  %31 = getelementptr inbounds i8, ptr %.132, i64 24
  %32 = tail call i32 (ptr, ptr, ...) @fprintf(ptr noundef %29, ptr noundef nonnull @.str.1, ptr noundef nonnull %31) #8
  br label %35

33:                                               ; preds = %28
  %34 = tail call i32 (ptr, ptr, ...) @fprintf(ptr noundef %29, ptr noundef nonnull @.str.2, i64 noundef %.027) #8
  br label %35

35:                                               ; preds = %33, %30
  %36 = load ptr, ptr @stderr, align 8
  %37 = tail call i64 @fwrite(ptr nonnull @.str.3, i64 3, i64 1, ptr %36) #7
  tail call void @zend_dump_const(ptr noundef nonnull %.02941)
  br label %38

38:                                               ; preds = %19, %35
  %.2 = phi i8 [ %.043, %19 ], [ %.1, %35 ]
  %39 = add i32 %.02842, -1
  %.not = icmp eq i32 %39, 0
  br i1 %.not, label %._crit_edge, label %.lr.ph

._crit_edge:                                      ; preds = %38, %1
  ret void
}